target datalayout = "e-m:e-p270:32:32-p271:32:32-p272:64:64-i64:64-i128:128-f80:128-n8:16:32:64-S128"
target triple = "x86_64-pc-linux-gnu"

@.str = private unnamed_addr constant [3 x i8] c"%d\00", align 1
@.str.1 = private unnamed_addr constant [3 x i8] c"%x\00", align 1

; Function Attrs: mustprogress nounwind uwtable
define noundef i32 @_ZN3url7_itoa_sEiPcmi(i32 noundef %0, ptr noundef %1, i64 noundef %2, i32 noundef %3) #5 {
  %5 = alloca i32, align 4
  %6 = alloca i32, align 4
  %7 = alloca ptr, align 8
  %8 = alloca i64, align 8
  %9 = alloca i32, align 4
  %10 = alloca ptr, align 8
  %11 = alloca i32, align 4
  %12 = alloca i32, align 4
  store i32 %0, ptr %6, align 4, !tbaa !8
  store ptr %1, ptr %7, align 8, !tbaa !3
  store i64 %2, ptr %8, align 8, !tbaa !74
  store i32 %3, ptr %9, align 4, !tbaa !8
  call void @llvm.lifetime.start.p0(i64 8, ptr %10) #8
  %13 = load i32, ptr %9, align 4, !tbaa !8
  %14 = icmp eq i32 %13, 10
  br i1 %14, label %15, label %16

15:                                               ; preds = %4
  store ptr @.str, ptr %10, align 8, !tbaa !3
  br label %22

16:                                               ; preds = %4
  %17 = load i32, ptr %9, align 4, !tbaa !8
  %18 = icmp eq i32 %17, 16
  br i1 %18, label %19, label %20

19:                                               ; preds = %16
  store ptr @.str.1, ptr %10, align 8, !tbaa !3
  br label %21

20:                                               ; preds = %16
  store i32 22, ptr %5, align 4
  store i32 1, ptr %11, align 4
  br label %35

21:                                               ; preds = %19
  br label %22

22:                                               ; preds = %21, %15
  call void @llvm.lifetime.start.p0(i64 4, ptr %12) #8
  %23 = load ptr, ptr %7, align 8, !tbaa !3
  %24 = load i64, ptr %8, align 8, !tbaa !74
  %25 = load ptr, ptr %10, align 8, !tbaa !3
  %26 = load i32, ptr %6, align 4, !tbaa !8
  %27 = call i32 (ptr, i64, ptr, ...) @snprintf(ptr noundef %23, i64 noundef %24, ptr noundef %25, i32 noundef %26) #8
  store i32 %27, ptr %12, align 4, !tbaa !8
  %28 = load i32, ptr %12, align 4, !tbaa !8
  %29 = sext i32 %28 to i64
  %30 = load i64, ptr %8, align 8, !tbaa !74
  %31 = icmp uge i64 %29, %30
  br i1 %31, label %32, label %33

32:                                               ; preds = %22
  store i32 22, ptr %5, align 4
  store i32 1, ptr %11, align 4
  br label %34

33:                                               ; preds = %22
  store i32 0, ptr %5, align 4
  store i32 1, ptr %11, align 4
  br label %34

34:                                               ; preds = %33, %32
  call void @llvm.lifetime.end.p0(i64 4, ptr %12) #8
  br label %35

35:                                               ; preds = %34, %20
  call void @llvm.lifetime.end.p0(i64 8, ptr %10) #8
  %36 = load i32, ptr %5, align 4
  ret i32 %36
}