; Function Attrs: mustprogress nofree nounwind uwtable
define noundef range(i32 0, 23) i32 @_ZN3url7_itoa_sEiPcmi(i32 noundef %0, ptr noundef writeonly captures(none) %1, i64 noundef %2, i32 noundef %3) local_unnamed_addr #4 {
  switch i32 %3, label %9 [
    i32 10, label %6
    i32 16, label %5
  ]

5:                                                ; preds = %4
  br label %6

6:                                                ; preds = %4, %5
  %.08 = phi ptr [ @.str.1, %5 ], [ @.str, %4 ]
  %7 = tail call i32 (ptr, i64, ptr, ...) @snprintf(ptr noundef %1, i64 noundef %2, ptr noundef nonnull %.08, i32 noundef %0) #7
  %8 = sext i32 %7 to i64
  %.not = icmp ugt i64 %2, %8
  %. = select i1 %.not, i32 0, i32 22
  br label %9

9:                                                ; preds = %4, %6
  %.0 = phi i32 [ %., %6 ], [ 22, %4 ]
  ret i32 %.0
}